target datalayout = "e-m:e-p270:32:32-p271:32:32-p272:64:64-i64:64-i128:128-f80:128-n8:16:32:64-S128"
target triple = "x86_64-pc-linux-gnu"

%struct.poly1305_data_st = type { ptr, i32, %struct.poly1305_context }
%struct.poly1305_context = type { [24 x double], [4 x i32], [16 x i8], i64, %struct.anon }
%struct.anon = type { ptr, ptr }

; Function Attrs: nounwind uwtable
define internal i64 @poly1305_size() #0 {
  ret i64 16
}

; Function Attrs: nounwind uwtable
define internal i32 @poly1305_final(ptr noundef %0, ptr noundef %1, ptr noundef %2, i64 noundef %3) #0 {
  %5 = alloca i32, align 4
  %6 = alloca ptr, align 8
  %7 = alloca ptr, align 8
  %8 = alloca ptr, align 8
  %9 = alloca i64, align 8
  %10 = alloca ptr, align 8
  %11 = alloca i32, align 4
  store ptr %0, ptr %6, align 8, !tbaa !3
  store ptr %1, ptr %7, align 8, !tbaa !19
  store ptr %2, ptr %8, align 8, !tbaa !24
  store i64 %3, ptr %9, align 8, !tbaa !18
  call void @llvm.lifetime.start.p0(i64 8, ptr %10) #4
  %12 = load ptr, ptr %6, align 8, !tbaa !3
  store ptr %12, ptr %10, align 8, !tbaa !7
  %13 = call i32 @ossl_prov_is_running()
  %14 = icmp ne i32 %13, 0
  br i1 %14, label %16, label %15

15:                                               ; preds = %4
  store i32 0, ptr %5, align 4
  store i32 1, ptr %11, align 4
  br label %24

16:                                               ; preds = %4
  %17 = load ptr, ptr %10, align 8, !tbaa !7
  %18 = getelementptr inbounds nuw %struct.poly1305_data_st, ptr %17, i32 0, i32 1
  store i32 1, ptr %18, align 8, !tbaa !23
  %19 = load ptr, ptr %10, align 8, !tbaa !7
  %20 = getelementptr inbounds nuw %struct.poly1305_data_st, ptr %19, i32 0, i32 2
  %21 = load ptr, ptr %7, align 8, !tbaa !19
  call void @Poly1305_Final(ptr noundef %20, ptr noundef %21)
  %22 = call i64 @poly1305_size()
  %23 = load ptr, ptr %8, align 8, !tbaa !24
  store i64 %22, ptr %23, align 8, !tbaa !18
  store i32 1, ptr %5, align 4
  store i32 1, ptr %11, align 4
  br label %24

24:                                               ; preds = %16, %15
  call void @llvm.lifetime.end.p0(i64 8, ptr %10) #4
  %25 = load i32, ptr %5, align 4
  ret i32 %25
}