; Function Attrs: nounwind uwtable
define internal range(i32 0, 2) i32 @poly1305_final(ptr noundef %0, ptr noundef %1, ptr noundef writeonly captures(none) %2, i64 %3) #0 {
  %5 = tail call i32 @ossl_prov_is_running() #4
  %.not = icmp eq i32 %5, 0
  br i1 %.not, label %9, label %6

6:                                                ; preds = %4
  %7 = getelementptr inbounds nuw i8, ptr %0, i64 8
  store i32 1, ptr %7, align 8, !tbaa !21
  %8 = getelementptr inbounds nuw i8, ptr %0, i64 16
  tail call void @Poly1305_Final(ptr noundef nonnull %8, ptr noundef %1) #4
  store i64 16, ptr %2, align 8, !tbaa !16
  br label %9

9:                                                ; preds = %4, %6
  %.0 = phi i32 [ 1, %6 ], [ 0, %4 ]
  ret i32 %.0
}